(dp0
S'id_5364'
p1
(lp2
S'H28_A'
p3
aS'H31_N'
p4
aS'H33_K'
p5
asS'id_5767'
p6
(lp7
S'H28_T'
p8
asS'id_5766'
p9
(lp10
S'H28_T'
p11
asS'id_5660'
p12
(lp13
S'H28_T'
p14
aS'H30_S'
p15
asS'id_5771'
p16
(lp17
S'H28_T'
p18
asS'id_5769'
p19
(lp20
S'H28_T'
p21
asS'id_5621'
p22
(lp23
S'H28_T'
p24
aS'H30_I'
p25
asS'id_5772'
p26
(lp27
S'H28_T'
p28
aS'H33_N'
p29
asS'id_5524'
p30
(lp31
S'H28_S'
p32
aS'H30_S'
p33
aS'H33_N'
p34
asS'id_5786'
p35
(lp36
S'H28_T'
p37
aS'H31_T'
p38
asS'id_5827'
p39
(lp40
S'H28_V'
p41
aS'H31_D'
p42
asS'id_5406'
p43
(lp44
S'H30_S'
p45
asS'id_3539'
p46
(lp47
S'H27_A'
p48
aS'H30_S'
p49
aS'H31_T'
p50
asS'id_5768'
p51
(lp52
S'H28_T'
p53
asS'id_5662'
p54
(lp55
S'H28_T'
p56
aS'H30_S'
p57
aS'H33_N'
p58
asS'id_5408'
p59
(lp60
S'H31_D'
p61
aS'H33_E'
p62
asS'id_5409'
p63
(lp64
S'H31_D'
p65
asS'id_5673'
p66
(lp67
S'H28_T'
p68
aS'H31_A'
p69
aS'H33_S'
p70
asS'id_5605'
p71
(lp72
S'H28_T'
p73
aS'H30_A'
p74
asS'id_5428'
p75
(lp76
sS'id_5429'
p77
(lp78
S'H31_T'
p79
asS'id_5563'
p80
(lp81
S'H28_S'
p82
asS'id_5531'
p83
(lp84
S'H28_S'
p85
aS'H31_A'
p86
aS'H33_N'
p87
asS'id_5565'
p88
(lp89
S'H28_S'
p90
aS'H33_S'
p91
asS'id_5765'
p92
(lp93
S'H28_T'
p94
asS'id_5567'
p95
(lp96
S'H28_S'
p97
asS'id_3786'
p98
(lp99
S'H27_F'
p100
aS'H30_S'
p101
aS'H33_S'
p102
asS'id_5420'
p103
(lp104
S'H31_N'
p105
aS'H33_N'
p106
asS'id_5421'
p107
(lp108
S'H31_N'
p109
asS'id_5422'
p110
(lp111
S'H32_H'
p112
asS'id_5423'
p113
(lp114
S'H32_H'
p115
asS'id_5424'
p116
(lp117
sS'id_5425'
p118
(lp119
sS'id_5426'
p120
(lp121
S'H33_S'
p122
asS'id_5427'
p123
(lp124
sS'id_5778'
p125
(lp126
S'H28_T'
p127
asS'id_5672'
p128
(lp129
S'H28_T'
p130
aS'H31_A'
p131
asS'id_5736'
p132
(lp133
S'H28_T'
p134
aS'H31_N'
p135
aS'H33_K'
p136
asS'id_5783'
p137
(lp138
S'H28_T'
p139
aS'H31_T'
p140
asS'id_5770'
p141
(lp142
S'H28_T'
p143
asS'id_5781'
p144
(lp145
S'H28_T'
p146
aS'H31_T'
p147
asS'id_5826'
p148
(lp149
S'H28_V'
p150
aS'H30_S'
p151
aS'H31_T'
p152
asS'id_5773'
p153
(lp154
S'H28_T'
p155
asS'id_5774'
p156
(lp157
S'H28_T'
p158
aS'H33_S'
p159
asS'id_5775'
p160
(lp161
S'H28_T'
p162
asS'id_5776'
p163
(lp164
S'H28_T'
p165
asS'id_5777'
p166
(lp167
S'H28_T'
p168
asS'id_5806'
p169
(lp170
S'H28_T'
p171
aS'H29_L'
p172
asS'id_5674'
p173
(lp174
S'H28_T'
p175
aS'H31_A'
p176
asS'id_5606'
p177
(lp178
S'H28_T'
p179
aS'H30_A'
p180
aS'H33_N'
p181
asS'id_5828'
p182
(lp183
S'H28_V'
p184
aS'H31_N'
p185
asS'id_5829'
p186
(lp187
S'H28_V'
p188
asS'id_5632'
p189
(lp190
S'H28_T'
p191
aS'H30_N'
p192
aS'H31_N'
p193
asS'id_5415'
p194
(lp195
S'H31_E'
p196
asS'id_5414'
p197
(lp198
S'H31_E'
p199
asS'id_5416'
p200
(lp201
S'H31_G'
p202
asS'id_5411'
p203
(lp204
S'H31_D'
p205
asS'id_5410'
p206
(lp207
S'H31_D'
p208
aS'H33_N'
p209
asS'id_5412'
p210
(lp211
S'H31_D'
p212
asS'id_5785'
p213
(lp214
S'H28_T'
p215
aS'H31_T'
p216
asS'id_5692'
p217
(lp218
S'H28_T'
p219
aS'H31_D'
p220
aS'H33_E'
p221
asS'id_5737'
p222
(lp223
S'H28_T'
p224
aS'H31_N'
p225
aS'H33_N'
p226
asS'id_5419'
p227
(lp228
S'H31_N'
p229
asS'id_5731'
p230
(lp231
S'H28_T'
p232
aS'H31_N'
p233
asS'id_5732'
p234
(lp235
S'H28_T'
p236
aS'H31_N'
p237
aS'H33_E'
p238
asS'id_5564'
p239
(lp240
S'H28_S'
p241
asS'id_5730'
p242
(lp243
S'H28_T'
p244
aS'H31_N'
p245
asS'id_5453'
p246
(lp247
S'H28_M'
p248
aS'H31_N'
p249
asS'id_5784'
p250
(lp251
S'H28_T'
p252
aS'H31_T'
p253
asS'id_5368'
p254
(lp255
S'H28_A'
p256
aS'H33_N'
p257
asS'id_5367'
p258
(lp259
S'H28_A'
p260
asS'id_5678'
p261
(lp262
S'H28_T'
p263
aS'H31_D'
p264
aS'H32_F'
p265
asS'id_5566'
p266
(lp267
S'H28_S'
p268
asS'id_5696'
p269
(lp270
S'H28_T'
p271
aS'H31_D'
p272
aS'H33_N'
p273
asS'id_5569'
p274
(lp275
S'H28_S'
p276
aS'H31_T'
p277
asS'id_3785'
p278
(lp279
S'H27_F'
p280
aS'H30_S'
p281
asS'id_3784'
p282
(lp283
S'H27_F'
p284
aS'H30_S'
p285
aS'H33_E'
p286
asS'id_3783'
p287
(lp288
S'H27_F'
p289
aS'H30_S'
p290
asS'id_3781'
p291
(lp292
S'H27_F'
p293
aS'H30_S'
p294
aS'H31_R'
p295
asS'id_5568'
p296
(lp297
S'H28_S'
p298
asS'id_5780'
p299
(lp300
S'H28_T'
p301
aS'H31_T'
p302
as.