(dp0
S'28H'
p1
(lp2
S'ALA'
p3
aS'PHE'
p4
aS'TYR'
p5
asS'36H'
p6
(lp7
g3
aS'GLU'
p8
aS'ASP'
p9
aS'GLY'
p10
aS'ASN'
p11
aS'ARG'
p12
aS'THR'
p13
aS'SER'
p14
asS'29H'
p15
(lp16
g3
aS'SER'
p17
aS'MET'
p18
ag13
aS'VAL'
p19
aS'ILE'
p20
asS'37H'
p21
(lp22
S'HIS'
p23
ag4
aS'TYR'
p24
asS'38H'
p25
(lp26
g17
ag8
aS'LYS'
p27
ag11
aS'ASP'
p28
asS'35H'
p29
(lp30
g3
aS'ILE'
p31
ag17
ag11
aS'THR'
p32
asS'30H'
p33
(lp34
S'LEU'
p35
aS'PHE'
p36
as.
